target datalayout = "e-m:e-p270:32:32-p271:32:32-p272:64:64-i64:64-i128:128-f80:128-n8:16:32:64-S128"
target triple = "x86_64-pc-linux-gnu"

%union.anon = type { float }

; Function Attrs: inlinehint mustprogress nounwind uwtable
define linkonce_odr hidden noundef i32 @_ZN19OpenColorIO_v2_5dev15FloatForCompareEj(i32 noundef %0) #6 comdat {
  %2 = alloca i32, align 4
  store i32 %0, ptr %2, align 4, !tbaa !7
  %3 = load i32, ptr %2, align 4, !tbaa !7
  %4 = icmp ult i32 %3, -2147483648
  br i1 %4, label %5, label %8

5:                                                ; preds = %1
  %6 = load i32, ptr %2, align 4, !tbaa !7
  %7 = add i32 -2147483648, %6
  br label %12

8:                                                ; preds = %1
  %9 = load i32, ptr %2, align 4, !tbaa !7
  %10 = and i32 %9, 2147483647
  %11 = sub i32 -2147483648, %10
  br label %12

12:                                               ; preds = %8, %5
  %13 = phi i32 [ %7, %5 ], [ %11, %8 ]
  ret i32 %13
}

; Function Attrs: inlinehint mustprogress nounwind uwtable
define linkonce_odr hidden noundef i32 @_ZN19OpenColorIO_v2_5dev30FloatForCompareCompressDenormsEj(i32 noundef %0) #6 comdat {
  %2 = alloca i32, align 4
  %3 = alloca i32, align 4
  %4 = alloca i32, align 4
  %5 = alloca i32, align 4
  store i32 %0, ptr %3, align 4, !tbaa !7
  call void @llvm.lifetime.start.p0(i64 4, ptr %4) #3
  %6 = load i32, ptr %3, align 4, !tbaa !7
  %7 = and i32 %6, 2147483647
  store i32 %7, ptr %4, align 4, !tbaa !7
  %8 = load i32, ptr %4, align 4, !tbaa !7
  %9 = icmp slt i32 %8, 8388608
  br i1 %9, label %10, label %11

10:                                               ; preds = %1
  store i32 -2147483648, ptr %2, align 4
  store i32 1, ptr %5, align 4
  br label %22

11:                                               ; preds = %1
  %12 = load i32, ptr %3, align 4, !tbaa !7
  %13 = icmp ult i32 %12, -2147483648
  br i1 %13, label %14, label %17

14:                                               ; preds = %11
  %15 = load i32, ptr %3, align 4, !tbaa !7
  %16 = add i32 2139095041, %15
  br label %20

17:                                               ; preds = %11
  %18 = load i32, ptr %4, align 4, !tbaa !7
  %19 = sub i32 -2139095041, %18
  br label %20

20:                                               ; preds = %17, %14
  %21 = phi i32 [ %16, %14 ], [ %19, %17 ]
  store i32 %21, ptr %2, align 4
  store i32 1, ptr %5, align 4
  br label %22

22:                                               ; preds = %20, %10
  call void @llvm.lifetime.end.p0(i64 4, ptr %4) #3
  %23 = load i32, ptr %2, align 4
  ret i32 %23
}

; Function Attrs: inlinehint mustprogress nounwind uwtable
define linkonce_odr hidden void @_ZN19OpenColorIO_v2_5dev22ExtractFloatComponentsEjRjS0_S0_(i32 noundef %0, ptr noundef nonnull align 4 dereferenceable(4) %1, ptr noundef nonnull align 4 dereferenceable(4) %2, ptr noundef nonnull align 4 dereferenceable(4) %3) #6 comdat {
  %5 = alloca i32, align 4
  %6 = alloca ptr, align 8
  %7 = alloca ptr, align 8
  %8 = alloca ptr, align 8
  %9 = alloca i32, align 4
  store i32 %0, ptr %5, align 4, !tbaa !7
  store ptr %1, ptr %6, align 8, !tbaa !43
  store ptr %2, ptr %7, align 8, !tbaa !43
  store ptr %3, ptr %8, align 8, !tbaa !43
  %10 = load i32, ptr %5, align 4, !tbaa !7
  %11 = and i32 %10, 8388607
  %12 = load ptr, ptr %8, align 8, !tbaa !43
  store i32 %11, ptr %12, align 4, !tbaa !7
  call void @llvm.lifetime.start.p0(i64 4, ptr %9) #3
  %13 = load i32, ptr %5, align 4, !tbaa !7
  %14 = lshr i32 %13, 23
  store i32 %14, ptr %9, align 4, !tbaa !7
  %15 = load i32, ptr %9, align 4, !tbaa !7
  %16 = and i32 %15, 255
  %17 = load ptr, ptr %7, align 8, !tbaa !43
  store i32 %16, ptr %17, align 4, !tbaa !7
  %18 = load i32, ptr %9, align 4, !tbaa !7
  %19 = lshr i32 %18, 8
  %20 = load ptr, ptr %6, align 8, !tbaa !43
  store i32 %19, ptr %20, align 4, !tbaa !7
  call void @llvm.lifetime.end.p0(i64 4, ptr %9) #3
  ret void
}

; Function Attrs: inlinehint mustprogress nounwind uwtable
define linkonce_odr hidden noundef i32 @_ZN19OpenColorIO_v2_5dev10FloatAsIntEf(float noundef %0) #6 comdat {
  %2 = alloca float, align 4
  %3 = alloca %union.anon, align 4
  store float %0, ptr %2, align 4, !tbaa !3
  call void @llvm.lifetime.start.p0(i64 4, ptr %3) #3
  %4 = load float, ptr %2, align 4, !tbaa !3
  store float %4, ptr %3, align 4, !tbaa !42
  %5 = load i32, ptr %3, align 4, !tbaa !42
  call void @llvm.lifetime.end.p0(i64 4, ptr %3) #3
  ret i32 %5
}

; Function Attrs: mustprogress uwtable
define hidden noundef zeroext i1 @_ZN19OpenColorIO_v2_5dev12FloatsDifferEffib(float noundef %0, float noundef %1, i32 noundef %2, i1 noundef zeroext %3) #4 {
  %5 = alloca i1, align 1
  %6 = alloca float, align 4
  %7 = alloca float, align 4
  %8 = alloca i32, align 4
  %9 = alloca i8, align 1
  %10 = alloca i32, align 4
  %11 = alloca i32, align 4
  %12 = alloca i32, align 4
  %13 = alloca i32, align 4
  %14 = alloca i32, align 4
  %15 = alloca i32, align 4
  %16 = alloca i32, align 4
  %17 = alloca i32, align 4
  %18 = alloca i8, align 1
  %19 = alloca i8, align 1
  %20 = alloca i8, align 1
  %21 = alloca i8, align 1
  %22 = alloca i32, align 4
  %23 = alloca i32, align 4
  %24 = alloca i32, align 4
  %25 = alloca i32, align 4
  store float %0, ptr %6, align 4, !tbaa !3
  store float %1, ptr %7, align 4, !tbaa !3
  store i32 %2, ptr %8, align 4, !tbaa !7
  %26 = zext i1 %3 to i8
  store i8 %26, ptr %9, align 1, !tbaa !9
  call void @llvm.lifetime.start.p0(i64 4, ptr %10) #3
  %27 = load float, ptr %6, align 4, !tbaa !3
  %28 = call noundef i32 @_ZN19OpenColorIO_v2_5dev10FloatAsIntEf(float noundef %27)
  store i32 %28, ptr %10, align 4, !tbaa !7
  call void @llvm.lifetime.start.p0(i64 4, ptr %11) #3
  %29 = load float, ptr %7, align 4, !tbaa !3
  %30 = call noundef i32 @_ZN19OpenColorIO_v2_5dev10FloatAsIntEf(float noundef %29)
  store i32 %30, ptr %11, align 4, !tbaa !7
  call void @llvm.lifetime.start.p0(i64 4, ptr %12) #3
  call void @llvm.lifetime.start.p0(i64 4, ptr %13) #3
  call void @llvm.lifetime.start.p0(i64 4, ptr %14) #3
  call void @llvm.lifetime.start.p0(i64 4, ptr %15) #3
  call void @llvm.lifetime.start.p0(i64 4, ptr %16) #3
  call void @llvm.lifetime.start.p0(i64 4, ptr %17) #3
  %31 = load i32, ptr %10, align 4, !tbaa !7
  call void @_ZN19OpenColorIO_v2_5dev22ExtractFloatComponentsEjRjS0_S0_(i32 noundef %31, ptr noundef nonnull align 4 dereferenceable(4) %12, ptr noundef nonnull align 4 dereferenceable(4) %13, ptr noundef nonnull align 4 dereferenceable(4) %14)
  %32 = load i32, ptr %11, align 4, !tbaa !7
  call void @_ZN19OpenColorIO_v2_5dev22ExtractFloatComponentsEjRjS0_S0_(i32 noundef %32, ptr noundef nonnull align 4 dereferenceable(4) %15, ptr noundef nonnull align 4 dereferenceable(4) %16, ptr noundef nonnull align 4 dereferenceable(4) %17)
  call void @llvm.lifetime.start.p0(i64 1, ptr %18) #3
  %33 = load i32, ptr %13, align 4, !tbaa !7
  %34 = icmp eq i32 %33, 255
  %35 = zext i1 %34 to i8
  store i8 %35, ptr %18, align 1, !tbaa !9
  call void @llvm.lifetime.start.p0(i64 1, ptr %19) #3
  %36 = load i32, ptr %16, align 4, !tbaa !7
  %37 = icmp eq i32 %36, 255
  %38 = zext i1 %37 to i8
  store i8 %38, ptr %19, align 1, !tbaa !9
  %39 = load i8, ptr %18, align 1, !tbaa !9, !range !11, !noundef !12
  %40 = trunc i8 %39 to i1
  br i1 %40, label %41, label %66

41:                                               ; preds = %4
  %42 = load i8, ptr %19, align 1, !tbaa !9, !range !11, !noundef !12
  %43 = trunc i8 %42 to i1
  br i1 %43, label %44, label %65

44:                                               ; preds = %41
  call void @llvm.lifetime.start.p0(i64 1, ptr %20) #3
  %45 = load i32, ptr %14, align 4, !tbaa !7
  %46 = icmp eq i32 %45, 0
  %47 = zext i1 %46 to i8
  store i8 %47, ptr %20, align 1, !tbaa !9
  call void @llvm.lifetime.start.p0(i64 1, ptr %21) #3
  %48 = load i32, ptr %17, align 4, !tbaa !7
  %49 = icmp eq i32 %48, 0
  %50 = zext i1 %49 to i8
  store i8 %50, ptr %21, align 1, !tbaa !9
  %51 = load i8, ptr %20, align 1, !tbaa !9, !range !11, !noundef !12
  %52 = trunc i8 %51 to i1
  br i1 %52, label %53, label %61

53:                                               ; preds = %44
  %54 = load i8, ptr %21, align 1, !tbaa !9, !range !11, !noundef !12
  %55 = trunc i8 %54 to i1
  br i1 %55, label %56, label %60

56:                                               ; preds = %53
  %57 = load i32, ptr %12, align 4, !tbaa !7
  %58 = load i32, ptr %15, align 4, !tbaa !7
  %59 = icmp ne i32 %57, %58
  store i1 %59, ptr %5, align 1
  store i32 1, ptr %22, align 4
  br label %64

60:                                               ; preds = %53
  store i1 true, ptr %5, align 1
  store i32 1, ptr %22, align 4
  br label %64

61:                                               ; preds = %44
  %62 = load i8, ptr %21, align 1, !tbaa !9, !range !11, !noundef !12
  %63 = trunc i8 %62 to i1
  store i1 %63, ptr %5, align 1
  store i32 1, ptr %22, align 4
  br label %64

64:                                               ; preds = %61, %60, %56
  call void @llvm.lifetime.end.p0(i64 1, ptr %21) #3
  call void @llvm.lifetime.end.p0(i64 1, ptr %20) #3
  br label %101

65:                                               ; preds = %41
  store i1 true, ptr %5, align 1
  store i32 1, ptr %22, align 4
  br label %101

66:                                               ; preds = %4
  %67 = load i8, ptr %19, align 1, !tbaa !9, !range !11, !noundef !12
  %68 = trunc i8 %67 to i1
  br i1 %68, label %69, label %70

69:                                               ; preds = %66
  store i1 true, ptr %5, align 1
  store i32 1, ptr %22, align 4
  br label %101

70:                                               ; preds = %66
  br label %71

71:                                               ; preds = %70
  call void @llvm.lifetime.start.p0(i64 4, ptr %23) #3
  call void @llvm.lifetime.start.p0(i64 4, ptr %24) #3
  %72 = load i8, ptr %9, align 1, !tbaa !9, !range !11, !noundef !12
  %73 = trunc i8 %72 to i1
  br i1 %73, label %74, label %79

74:                                               ; preds = %71
  %75 = load i32, ptr %10, align 4, !tbaa !7
  %76 = call noundef i32 @_ZN19OpenColorIO_v2_5dev30FloatForCompareCompressDenormsEj(i32 noundef %75)
  store i32 %76, ptr %23, align 4, !tbaa !7
  %77 = load i32, ptr %11, align 4, !tbaa !7
  %78 = call noundef i32 @_ZN19OpenColorIO_v2_5dev30FloatForCompareCompressDenormsEj(i32 noundef %77)
  store i32 %78, ptr %24, align 4, !tbaa !7
  br label %84

79:                                               ; preds = %71
  %80 = load i32, ptr %10, align 4, !tbaa !7
  %81 = call noundef i32 @_ZN19OpenColorIO_v2_5dev15FloatForCompareEj(i32 noundef %80)
  store i32 %81, ptr %23, align 4, !tbaa !7
  %82 = load i32, ptr %11, align 4, !tbaa !7
  %83 = call noundef i32 @_ZN19OpenColorIO_v2_5dev15FloatForCompareEj(i32 noundef %82)
  store i32 %83, ptr %24, align 4, !tbaa !7
  br label %84

84:                                               ; preds = %79, %74
  call void @llvm.lifetime.start.p0(i64 4, ptr %25) #3
  %85 = load i32, ptr %23, align 4, !tbaa !7
  %86 = load i32, ptr %24, align 4, !tbaa !7
  %87 = icmp ugt i32 %85, %86
  br i1 %87, label %88, label %92

88:                                               ; preds = %84
  %89 = load i32, ptr %23, align 4, !tbaa !7
  %90 = load i32, ptr %24, align 4, !tbaa !7
  %91 = sub i32 %89, %90
  br label %96

92:                                               ; preds = %84
  %93 = load i32, ptr %24, align 4, !tbaa !7
  %94 = load i32, ptr %23, align 4, !tbaa !7
  %95 = sub i32 %93, %94
  br label %96

96:                                               ; preds = %92, %88
  %97 = phi i32 [ %91, %88 ], [ %95, %92 ]
  store i32 %97, ptr %25, align 4, !tbaa !7
  %98 = load i32, ptr %25, align 4, !tbaa !7
  %99 = load i32, ptr %8, align 4, !tbaa !7
  %100 = icmp ugt i32 %98, %99
  store i1 %100, ptr %5, align 1
  store i32 1, ptr %22, align 4
  call void @llvm.lifetime.end.p0(i64 4, ptr %25) #3
  call void @llvm.lifetime.end.p0(i64 4, ptr %24) #3
  call void @llvm.lifetime.end.p0(i64 4, ptr %23) #3
  br label %101

101:                                              ; preds = %96, %69, %65, %64
  call void @llvm.lifetime.end.p0(i64 1, ptr %19) #3
  call void @llvm.lifetime.end.p0(i64 1, ptr %18) #3
  call void @llvm.lifetime.end.p0(i64 4, ptr %17) #3
  call void @llvm.lifetime.end.p0(i64 4, ptr %16) #3
  call void @llvm.lifetime.end.p0(i64 4, ptr %15) #3
  call void @llvm.lifetime.end.p0(i64 4, ptr %14) #3
  call void @llvm.lifetime.end.p0(i64 4, ptr %13) #3
  call void @llvm.lifetime.end.p0(i64 4, ptr %12) #3
  call void @llvm.lifetime.end.p0(i64 4, ptr %11) #3
  call void @llvm.lifetime.end.p0(i64 4, ptr %10) #3
  %102 = load i1, ptr %5, align 1
  ret i1 %102
}

; Function Attrs: mustprogress uwtable
define weak_odr hidden noundef zeroext i1 @_ZN19OpenColorIO_v2_5dev19IsScalarEqualToZeroIfEEbT_(float noundef %0) #4 comdat {
  %2 = alloca float, align 4
  store float %0, ptr %2, align 4, !tbaa !3
  %3 = load float, ptr %2, align 4, !tbaa !3
  %4 = call noundef zeroext i1 @_ZN19OpenColorIO_v2_5dev12FloatsDifferEffib(float noundef 0.000000e+00, float noundef %3, i32 noundef 2, i1 noundef zeroext false)
  %5 = xor i1 %4, true
  ret i1 %5
}

; Function Attrs: mustprogress uwtable
define hidden noundef zeroext i1 @_ZN19OpenColorIO_v2_5dev15VecContainsZeroEPKfi(ptr noundef %0, i32 noundef %1) #4 {
  %3 = alloca i1, align 1
  %4 = alloca ptr, align 8
  %5 = alloca i32, align 4
  %6 = alloca i32, align 4
  %7 = alloca i32, align 4
  store ptr %0, ptr %4, align 8, !tbaa !15
  store i32 %1, ptr %5, align 4, !tbaa !7
  call void @llvm.lifetime.start.p0(i64 4, ptr %6) #3
  store i32 0, ptr %6, align 4, !tbaa !7
  br label %8

8:                                                ; preds = %22, %2
  %9 = load i32, ptr %6, align 4, !tbaa !7
  %10 = load i32, ptr %5, align 4, !tbaa !7
  %11 = icmp slt i32 %9, %10
  br i1 %11, label %13, label %12

12:                                               ; preds = %8
  store i32 2, ptr %7, align 4
  br label %25

13:                                               ; preds = %8
  %14 = load ptr, ptr %4, align 8, !tbaa !15
  %15 = load i32, ptr %6, align 4, !tbaa !7
  %16 = sext i32 %15 to i64
  %17 = getelementptr inbounds float, ptr %14, i64 %16
  %18 = load float, ptr %17, align 4, !tbaa !3
  %19 = call noundef zeroext i1 @_ZN19OpenColorIO_v2_5dev19IsScalarEqualToZeroIfEEbT_(float noundef %18)
  br i1 %19, label %20, label %21

20:                                               ; preds = %13
  store i1 true, ptr %3, align 1
  store i32 1, ptr %7, align 4
  br label %25

21:                                               ; preds = %13
  br label %22

22:                                               ; preds = %21
  %23 = load i32, ptr %6, align 4, !tbaa !7
  %24 = add nsw i32 %23, 1
  store i32 %24, ptr %6, align 4, !tbaa !7
  br label %8, !llvm.loop !31

25:                                               ; preds = %20, %12
  call void @llvm.lifetime.end.p0(i64 4, ptr %6) #3
  %26 = load i32, ptr %7, align 4
  switch i32 %26, label %30 [
    i32 2, label %27
    i32 1, label %28
  ]

27:                                               ; preds = %25
  store i1 false, ptr %3, align 1
  br label %28

28:                                               ; preds = %27, %25
  %29 = load i1, ptr %3, align 1
  ret i1 %29

30:                                               ; preds = %25
  unreachable
}